target datalayout = "e-m:e-p270:32:32-p271:32:32-p272:64:64-i64:64-i128:128-f80:128-n8:16:32:64-S128"
target triple = "x86_64-pc-linux-gnu"

%class.anon.454 = type { i8 }

@destruct_count = hidden global i32 0, align 4

; Function Attrs: inlinehint mustprogress nounwind optsize uwtable
define internal void @"_ZZZL30nanobind_init_test_ndarray_extRN8nanobind7module_EENK4$_52clEvENKUlPvE_clES3_"(ptr noundef nonnull align 1 dereferenceable(1) %0, ptr noundef %1) #11 align 2 {
  %3 = alloca ptr, align 8
  %4 = alloca ptr, align 8
  store ptr %0, ptr %3, align 8, !tbaa !29
  store ptr %1, ptr %4, align 8, !tbaa !29
  %5 = load i32, ptr @destruct_count, align 4, !tbaa !72
  %6 = add nsw i32 %5, 1
  store i32 %6, ptr @destruct_count, align 4, !tbaa !72
  %7 = load ptr, ptr %4, align 8, !tbaa !29
  %8 = icmp eq ptr %7, null
  br i1 %8, label %10, label %9

9:                                                ; preds = %2
  call void @_ZdaPv(ptr noundef %7) #27
  br label %10

10:                                               ; preds = %9, %2
  ret void
}

; Function Attrs: inlinehint mustprogress nounwind optsize uwtable
define internal void @"_ZZZL30nanobind_init_test_ndarray_extRN8nanobind7module_EENK4$_52clEvENUlPvE_8__invokeES3_"(ptr noundef %0) #11 align 2 {
  %2 = alloca ptr, align 8
  %3 = alloca %class.anon.454, align 1
  store ptr %0, ptr %2, align 8, !tbaa !29
  %4 = load ptr, ptr %2, align 8, !tbaa !29
  call void @"_ZZZL30nanobind_init_test_ndarray_extRN8nanobind7module_EENK4$_52clEvENKUlPvE_clES3_"(ptr noundef nonnull align 1 dereferenceable(1) %3, ptr noundef %4) #23
  ret void
}